target datalayout = "e-m:e-p270:32:32-p271:32:32-p272:64:64-i64:64-i128:128-f80:128-n8:16:32:64-S128"
target triple = "x86_64-pc-linux-gnu"

%struct.sha256_context = type { [8 x i32], i64, [64 x i8] }

; Function Attrs: mustprogress uwtable
define void @_Z6pbkdf2PKhmS0_mPhS1_S1_j(ptr noundef %0, i64 noundef %1, ptr noundef %2, i64 noundef %3, ptr noundef %4, ptr noundef %5, ptr noundef %6, i32 noundef %7) #1 {
  %9 = alloca ptr, align 8
  %10 = alloca i64, align 8
  %11 = alloca ptr, align 8
  %12 = alloca i64, align 8
  %13 = alloca ptr, align 8
  %14 = alloca ptr, align 8
  %15 = alloca ptr, align 8
  %16 = alloca i32, align 4
  %17 = alloca i64, align 8
  %18 = alloca [68 x i8], align 16
  %19 = alloca [32 x i8], align 16
  %20 = alloca [32 x i8], align 16
  %21 = alloca [3 x i32], align 4
  %22 = alloca [3 x ptr], align 16
  %23 = alloca %struct.sha256_context, align 8
  %24 = alloca %struct.sha256_context, align 8
  %25 = alloca i8, align 1
  %26 = alloca i8, align 1
  %27 = alloca [32 x i8], align 16
  %28 = alloca i32, align 4
  %29 = alloca i32, align 4
  %30 = alloca i32, align 4
  store ptr %0, ptr %9, align 8
  store i64 %1, ptr %10, align 8
  store ptr %2, ptr %11, align 8
  store i64 %3, ptr %12, align 8
  store ptr %4, ptr %13, align 8
  store ptr %5, ptr %14, align 8
  store ptr %6, ptr %15, align 8
  store i32 %7, ptr %16, align 4
  store i64 64, ptr %17, align 8
  %31 = getelementptr inbounds [68 x i8], ptr %18, i64 0, i64 0
  %32 = load ptr, ptr %11, align 8
  %33 = load i64, ptr %12, align 8
  %34 = icmp ult i64 %33, 64
  br i1 %34, label %35, label %37

35:                                               ; preds = %8
  %36 = load i64, ptr %12, align 8
  br label %38

37:                                               ; preds = %8
  br label %38

38:                                               ; preds = %37, %35
  %39 = phi i64 [ %36, %35 ], [ 64, %37 ]
  call void @llvm.memcpy.p0.p0.i64(ptr align 16 %31, ptr align 1 %32, i64 %39, i1 false)
  %40 = load i64, ptr %12, align 8
  %41 = add i64 %40, 0
  %42 = getelementptr inbounds [68 x i8], ptr %18, i64 0, i64 %41
  store i8 0, ptr %42, align 1
  %43 = load i64, ptr %12, align 8
  %44 = add i64 %43, 1
  %45 = getelementptr inbounds [68 x i8], ptr %18, i64 0, i64 %44
  store i8 0, ptr %45, align 1
  %46 = load i64, ptr %12, align 8
  %47 = add i64 %46, 2
  %48 = getelementptr inbounds [68 x i8], ptr %18, i64 0, i64 %47
  store i8 0, ptr %48, align 1
  %49 = load i64, ptr %12, align 8
  %50 = add i64 %49, 3
  %51 = getelementptr inbounds [68 x i8], ptr %18, i64 0, i64 %50
  store i8 1, ptr %51, align 1
  %52 = load ptr, ptr %9, align 8
  %53 = load i64, ptr %10, align 8
  %54 = getelementptr inbounds [68 x i8], ptr %18, i64 0, i64 0
  %55 = load i64, ptr %12, align 8
  %56 = add i64 %55, 4
  %57 = getelementptr inbounds [32 x i8], ptr %19, i64 0, i64 0
  call void @_ZL11hmac_sha256PKhmS0_mPhP14sha256_contextPbS3_S4_(ptr noundef %52, i64 noundef %53, ptr noundef %54, i64 noundef %56, ptr noundef %57, ptr noundef null, ptr noundef null, ptr noundef null, ptr noundef null)
  %58 = getelementptr inbounds [32 x i8], ptr %20, i64 0, i64 0
  %59 = getelementptr inbounds [32 x i8], ptr %19, i64 0, i64 0
  call void @llvm.memcpy.p0.p0.i64(ptr align 16 %58, ptr align 16 %59, i64 32, i1 false)
  %60 = getelementptr inbounds [3 x i32], ptr %21, i64 0, i64 0
  %61 = load i32, ptr %16, align 4
  %62 = sub i32 %61, 1
  store i32 %62, ptr %60, align 4
  %63 = getelementptr inbounds i32, ptr %60, i64 1
  store i32 16, ptr %63, align 4
  %64 = getelementptr inbounds i32, ptr %63, i64 1
  store i32 16, ptr %64, align 4
  %65 = getelementptr inbounds [3 x ptr], ptr %22, i64 0, i64 0
  %66 = load ptr, ptr %13, align 8
  store ptr %66, ptr %65, align 8
  %67 = getelementptr inbounds ptr, ptr %65, i64 1
  %68 = load ptr, ptr %14, align 8
  store ptr %68, ptr %67, align 8
  %69 = getelementptr inbounds ptr, ptr %67, i64 1
  %70 = load ptr, ptr %15, align 8
  store ptr %70, ptr %69, align 8
  store i8 0, ptr %25, align 1
  store i8 0, ptr %26, align 1
  store i32 0, ptr %28, align 4
  br label %71

71:                                               ; preds = %119, %38
  %72 = load i32, ptr %28, align 4
  %73 = icmp ult i32 %72, 3
  br i1 %73, label %74, label %122

74:                                               ; preds = %71
  store i32 0, ptr %29, align 4
  br label %75

75:                                               ; preds = %110, %74
  %76 = load i32, ptr %29, align 4
  %77 = load i32, ptr %28, align 4
  %78 = zext i32 %77 to i64
  %79 = getelementptr inbounds [3 x i32], ptr %21, i64 0, i64 %78
  %80 = load i32, ptr %79, align 4
  %81 = icmp ult i32 %76, %80
  br i1 %81, label %82, label %113

82:                                               ; preds = %75
  %83 = load ptr, ptr %9, align 8
  %84 = load i64, ptr %10, align 8
  %85 = getelementptr inbounds [32 x i8], ptr %19, i64 0, i64 0
  %86 = getelementptr inbounds [32 x i8], ptr %27, i64 0, i64 0
  call void @_ZL11hmac_sha256PKhmS0_mPhP14sha256_contextPbS3_S4_(ptr noundef %83, i64 noundef %84, ptr noundef %85, i64 noundef 32, ptr noundef %86, ptr noundef %23, ptr noundef %25, ptr noundef %24, ptr noundef %26)
  %87 = getelementptr inbounds [32 x i8], ptr %19, i64 0, i64 0
  %88 = getelementptr inbounds [32 x i8], ptr %27, i64 0, i64 0
  call void @llvm.memcpy.p0.p0.i64(ptr align 16 %87, ptr align 16 %88, i64 32, i1 false)
  store i32 0, ptr %30, align 4
  br label %89

89:                                               ; preds = %106, %82
  %90 = load i32, ptr %30, align 4
  %91 = zext i32 %90 to i64
  %92 = icmp ult i64 %91, 32
  br i1 %92, label %93, label %109

93:                                               ; preds = %89
  %94 = load i32, ptr %30, align 4
  %95 = zext i32 %94 to i64
  %96 = getelementptr inbounds [32 x i8], ptr %19, i64 0, i64 %95
  %97 = load i8, ptr %96, align 1
  %98 = zext i8 %97 to i32
  %99 = load i32, ptr %30, align 4
  %100 = zext i32 %99 to i64
  %101 = getelementptr inbounds [32 x i8], ptr %20, i64 0, i64 %100
  %102 = load i8, ptr %101, align 1
  %103 = zext i8 %102 to i32
  %104 = xor i32 %103, %98
  %105 = trunc i32 %104 to i8
  store i8 %105, ptr %101, align 1
  br label %106

106:                                              ; preds = %93
  %107 = load i32, ptr %30, align 4
  %108 = add i32 %107, 1
  store i32 %108, ptr %30, align 4
  br label %89, !llvm.loop !21

109:                                              ; preds = %89
  br label %110

110:                                              ; preds = %109
  %111 = load i32, ptr %29, align 4
  %112 = add i32 %111, 1
  store i32 %112, ptr %29, align 4
  br label %75, !llvm.loop !22

113:                                              ; preds = %75
  %114 = load i32, ptr %28, align 4
  %115 = zext i32 %114 to i64
  %116 = getelementptr inbounds [3 x ptr], ptr %22, i64 0, i64 %115
  %117 = load ptr, ptr %116, align 8
  %118 = getelementptr inbounds [32 x i8], ptr %20, i64 0, i64 0
  call void @llvm.memcpy.p0.p0.i64(ptr align 1 %117, ptr align 16 %118, i64 32, i1 false)
  br label %119

119:                                              ; preds = %113
  %120 = load i32, ptr %28, align 4
  %121 = add i32 %120, 1
  store i32 %121, ptr %28, align 4
  br label %71, !llvm.loop !23

122:                                              ; preds = %71
  %123 = getelementptr inbounds [68 x i8], ptr %18, i64 0, i64 0
  call void @_Z9cleandataPvm(ptr noundef %123, i64 noundef 68)
  %124 = getelementptr inbounds [32 x i8], ptr %20, i64 0, i64 0
  call void @_Z9cleandataPvm(ptr noundef %124, i64 noundef 32)
  %125 = getelementptr inbounds [32 x i8], ptr %19, i64 0, i64 0
  call void @_Z9cleandataPvm(ptr noundef %125, i64 noundef 32)
  %126 = getelementptr inbounds [32 x i8], ptr %27, i64 0, i64 0
  call void @_Z9cleandataPvm(ptr noundef %126, i64 noundef 32)
  ret void
}