; Function Attrs: mustprogress uwtable
define void @_Z6pbkdf2PKhmS0_mPhS1_S1_j(ptr noundef %0, i64 noundef %1, ptr noundef readonly captures(none) %2, i64 noundef %3, ptr noundef %4, ptr noundef %5, ptr noundef %6, i32 noundef %7) local_unnamed_addr #1 {
  %9 = alloca [68 x i8], align 16
  %10 = alloca [32 x i8], align 16
  %11 = alloca [32 x i8], align 16
  %12 = alloca [3 x i32], align 4
  %13 = alloca [3 x ptr], align 16
  %14 = alloca %struct.sha256_context, align 8
  %15 = alloca %struct.sha256_context, align 8
  %16 = alloca i8, align 1
  %17 = alloca i8, align 1
  %18 = alloca [32 x i8], align 16
  %19 = tail call i64 @llvm.umin.i64(i64 %3, i64 64)
  call void @llvm.memcpy.p0.p0.i64(ptr nonnull align 16 %9, ptr align 1 %2, i64 %19, i1 false)
  %20 = getelementptr inbounds [68 x i8], ptr %9, i64 0, i64 %3
  store i8 0, ptr %20, align 1
  %21 = add i64 %3, 1
  %22 = getelementptr inbounds [68 x i8], ptr %9, i64 0, i64 %21
  store i8 0, ptr %22, align 1
  %23 = add i64 %3, 2
  %24 = getelementptr inbounds [68 x i8], ptr %9, i64 0, i64 %23
  store i8 0, ptr %24, align 1
  %25 = add i64 %3, 3
  %26 = getelementptr inbounds [68 x i8], ptr %9, i64 0, i64 %25
  store i8 1, ptr %26, align 1
  %27 = add i64 %3, 4
  call fastcc void @_ZL11hmac_sha256PKhmS0_mPhP14sha256_contextPbS3_S4_(ptr noundef %0, i64 noundef %1, ptr noundef nonnull %9, i64 noundef %27, ptr noundef %10, ptr noundef null, ptr noundef null, ptr noundef null, ptr noundef null)
  call void @llvm.memcpy.p0.p0.i64(ptr noundef nonnull align 16 dereferenceable(32) %11, ptr noundef nonnull align 16 dereferenceable(32) %10, i64 32, i1 false)
  %28 = add i32 %7, -1
  store i32 %28, ptr %12, align 4
  %29 = getelementptr inbounds nuw i8, ptr %12, i64 4
  store i32 16, ptr %29, align 4
  %30 = getelementptr inbounds nuw i8, ptr %12, i64 8
  store i32 16, ptr %30, align 4
  store ptr %4, ptr %13, align 16
  %31 = getelementptr inbounds nuw i8, ptr %13, i64 8
  store ptr %5, ptr %31, align 8
  %32 = getelementptr inbounds nuw i8, ptr %13, i64 16
  store ptr %6, ptr %32, align 16
  store i8 0, ptr %16, align 1
  store i8 0, ptr %17, align 1
  br label %.preheader

.preheader:                                       ; preds = %8, %._crit_edge
  %indvars.iv33 = phi i64 [ 0, %8 ], [ %indvars.iv.next34, %._crit_edge ]
  %33 = getelementptr inbounds nuw [3 x i32], ptr %12, i64 0, i64 %indvars.iv33
  %34 = load i32, ptr %33, align 4
  %.not = icmp eq i32 %34, 0
  br i1 %.not, label %._crit_edge, label %.lr.ph

.lr.ph:                                           ; preds = %.preheader, %41
  %.02529 = phi i32 [ %42, %41 ], [ 0, %.preheader ]
  call fastcc void @_ZL11hmac_sha256PKhmS0_mPhP14sha256_contextPbS3_S4_(ptr noundef %0, i64 noundef %1, ptr noundef nonnull %10, i64 noundef 32, ptr noundef %18, ptr noundef nonnull %14, ptr noundef nonnull %16, ptr noundef nonnull %15, ptr noundef nonnull %17)
  call void @llvm.memcpy.p0.p0.i64(ptr noundef nonnull align 16 dereferenceable(32) %10, ptr noundef nonnull align 16 dereferenceable(32) %18, i64 32, i1 false)
  br label %35

35:                                               ; preds = %.lr.ph, %35
  %indvars.iv = phi i64 [ 0, %.lr.ph ], [ %indvars.iv.next, %35 ]
  %36 = getelementptr inbounds nuw [32 x i8], ptr %10, i64 0, i64 %indvars.iv
  %37 = load i8, ptr %36, align 1
  %38 = getelementptr inbounds nuw [32 x i8], ptr %11, i64 0, i64 %indvars.iv
  %39 = load i8, ptr %38, align 1
  %40 = xor i8 %39, %37
  store i8 %40, ptr %38, align 1
  %indvars.iv.next = add nuw nsw i64 %indvars.iv, 1
  %exitcond.not = icmp eq i64 %indvars.iv.next, 32
  br i1 %exitcond.not, label %41, label %35, !llvm.loop !20

41:                                               ; preds = %35
  %42 = add nuw i32 %.02529, 1
  %exitcond32.not = icmp eq i32 %42, %34
  br i1 %exitcond32.not, label %._crit_edge, label %.lr.ph, !llvm.loop !21

._crit_edge:                                      ; preds = %41, %.preheader
  %43 = getelementptr inbounds nuw [3 x ptr], ptr %13, i64 0, i64 %indvars.iv33
  %44 = load ptr, ptr %43, align 8
  call void @llvm.memcpy.p0.p0.i64(ptr noundef nonnull align 1 dereferenceable(32) %44, ptr noundef nonnull align 16 dereferenceable(32) %11, i64 32, i1 false)
  %indvars.iv.next34 = add nuw nsw i64 %indvars.iv33, 1
  %exitcond36.not = icmp eq i64 %indvars.iv.next34, 3
  br i1 %exitcond36.not, label %45, label %.preheader, !llvm.loop !22

45:                                               ; preds = %._crit_edge
  call void @_Z9cleandataPvm(ptr noundef nonnull %9, i64 noundef 68)
  call void @_Z9cleandataPvm(ptr noundef nonnull %11, i64 noundef 32)
  call void @_Z9cleandataPvm(ptr noundef nonnull %10, i64 noundef 32)
  call void @_Z9cleandataPvm(ptr noundef nonnull %18, i64 noundef 32)
  ret void
}